target datalayout = "e-m:e-p270:32:32-p271:32:32-p272:64:64-i64:64-i128:128-f80:128-n8:16:32:64-S128"
target triple = "x86_64-pc-linux-gnu"

%class.frame = type { %union.anon, ptr, ptr, ptr, i32, i8, %union.anon.0, %union.anon.1 }
%union.anon = type { ptr }
%union.anon.0 = type { ptr }
%union.anon.1 = type { ptr }
%class.JfrGetCallTrace = type <{ ptr, i8, [7 x i8] }>

; Function Attrs: mustprogress nounwind uwtable
define linkonce_odr hidden void @_ZN5frameC2Ev(ptr noundef nonnull align 8 dereferenceable(56) %0) unnamed_addr #1 comdat align 2 {
  %2 = alloca ptr, align 8
  store ptr %0, ptr %2, align 8
  %3 = load ptr, ptr %2, align 8
  %4 = getelementptr inbounds %class.frame, ptr %3, i32 0, i32 1
  store ptr null, ptr %4, align 8
  %5 = getelementptr inbounds %class.frame, ptr %3, i32 0, i32 0
  store ptr null, ptr %5, align 8
  %6 = getelementptr inbounds %class.frame, ptr %3, i32 0, i32 7
  store ptr null, ptr %6, align 8
  %7 = getelementptr inbounds %class.frame, ptr %3, i32 0, i32 6
  store ptr null, ptr %7, align 8
  %8 = getelementptr inbounds %class.frame, ptr %3, i32 0, i32 2
  store ptr null, ptr %8, align 8
  %9 = getelementptr inbounds %class.frame, ptr %3, i32 0, i32 4
  store i32 2, ptr %9, align 8
  %10 = getelementptr inbounds %class.frame, ptr %3, i32 0, i32 3
  store ptr null, ptr %10, align 8
  %11 = getelementptr inbounds %class.frame, ptr %3, i32 0, i32 5
  store i8 0, ptr %11, align 4
  ret void
}

; Function Attrs: mustprogress nounwind uwtable
define linkonce_odr hidden noundef ptr @_ZNK5frame2cbEv(ptr noundef nonnull align 8 dereferenceable(56) %0) #1 comdat align 2 {
  %2 = alloca ptr, align 8
  store ptr %0, ptr %2, align 8
  %3 = load ptr, ptr %2, align 8
  %4 = getelementptr inbounds %class.frame, ptr %3, i32 0, i32 2
  %5 = load ptr, ptr %4, align 8
  ret ptr %5
}

; Function Attrs: mustprogress nounwind uwtable
define hidden noundef zeroext i1 @_ZN15JfrGetCallTrace12get_topframeEPvR5frame(ptr noundef nonnull align 8 dereferenceable(9) %0, ptr noundef %1, ptr noundef nonnull align 8 dereferenceable(56) %2) #1 align 2 {
  %4 = alloca i1, align 1
  %5 = alloca ptr, align 8
  %6 = alloca ptr, align 8
  %7 = alloca ptr, align 8
  %8 = alloca %class.frame, align 8
  %9 = alloca ptr, align 8
  store ptr %0, ptr %5, align 8
  store ptr %1, ptr %6, align 8
  store ptr %2, ptr %7, align 8
  %10 = load ptr, ptr %5, align 8
  %11 = getelementptr inbounds %class.JfrGetCallTrace, ptr %10, i32 0, i32 0
  %12 = load ptr, ptr %11, align 8
  %13 = load ptr, ptr %7, align 8
  %14 = load ptr, ptr %6, align 8
  %15 = getelementptr inbounds %class.JfrGetCallTrace, ptr %10, i32 0, i32 1
  %16 = load i8, ptr %15, align 8
  %17 = trunc i8 %16 to i1
  %18 = call noundef zeroext i1 @_ZN10JavaThread30pd_get_top_frame_for_profilingEP5framePvb(ptr noundef nonnull align 8 dereferenceable(1800) %12, ptr noundef %13, ptr noundef %14, i1 noundef zeroext %17)
  br i1 %18, label %20, label %19

19:                                               ; preds = %3
  store i1 false, ptr %4, align 1
  br label %35

20:                                               ; preds = %3
  %21 = load ptr, ptr %7, align 8
  %22 = call noundef ptr @_ZNK5frame2cbEv(ptr noundef nonnull align 8 dereferenceable(56) %21)
  %23 = icmp eq ptr %22, null
  br i1 %23, label %24, label %25

24:                                               ; preds = %20
  store i1 false, ptr %4, align 1
  br label %35

25:                                               ; preds = %20
  call void @_ZN5frameC2Ev(ptr noundef nonnull align 8 dereferenceable(56) %8)
  store ptr null, ptr %9, align 8
  %26 = load ptr, ptr %7, align 8
  %27 = call noundef zeroext i1 @_ZN15JfrGetCallTrace14find_top_frameER5framePP6MethodS1_(ptr noundef nonnull align 8 dereferenceable(9) %10, ptr noundef nonnull align 8 dereferenceable(56) %26, ptr noundef %9, ptr noundef nonnull align 8 dereferenceable(56) %8)
  br i1 %27, label %28, label %34

28:                                               ; preds = %25
  %29 = load ptr, ptr %9, align 8
  %30 = icmp eq ptr %29, null
  br i1 %30, label %31, label %32

31:                                               ; preds = %28
  store i1 false, ptr %4, align 1
  br label %35

32:                                               ; preds = %28
  %33 = load ptr, ptr %7, align 8
  call void @llvm.memcpy.p0.p0.i64(ptr align 8 %33, ptr align 8 %8, i64 56, i1 false)
  store i1 true, ptr %4, align 1
  br label %35

34:                                               ; preds = %25
  store i1 false, ptr %4, align 1
  br label %35

35:                                               ; preds = %34, %32, %31, %24, %19
  %36 = load i1, ptr %4, align 1
  ret i1 %36
}