; Function Attrs: mustprogress nounwind uwtable
define hidden noundef zeroext i1 @_ZN15JfrGetCallTrace12get_topframeEPvR5frame(ptr nocapture noundef nonnull readonly align 8 dereferenceable(9) %0, ptr noundef %1, ptr noundef nonnull align 8 dereferenceable(56) %2) local_unnamed_addr #0 align 2 {
  %4 = alloca %class.frame, align 8
  %5 = alloca ptr, align 8
  %6 = load ptr, ptr %0, align 8
  %7 = getelementptr inbounds i8, ptr %0, i64 8
  %8 = load i8, ptr %7, align 8
  %9 = trunc i8 %8 to i1
  %10 = tail call noundef zeroext i1 @_ZN10JavaThread30pd_get_top_frame_for_profilingEP5framePvb(ptr noundef nonnull align 8 dereferenceable(1800) %6, ptr noundef nonnull %2, ptr noundef %1, i1 noundef zeroext %9) #5
  %11 = getelementptr inbounds i8, ptr %2, i64 16
  %12 = load ptr, ptr %11, align 8
  %13 = icmp ne ptr %12, null
  %or.cond11.not = select i1 %10, i1 %13, i1 false
  br i1 %or.cond11.not, label %14, label %23

14:                                               ; preds = %3
  %15 = getelementptr inbounds i8, ptr %4, i64 40
  %16 = getelementptr inbounds i8, ptr %4, i64 32
  call void @llvm.memset.p0.i64(ptr noundef nonnull align 8 dereferenceable(24) %4, i8 0, i64 24, i1 false)
  call void @llvm.memset.p0.i64(ptr noundef nonnull align 8 dereferenceable(16) %15, i8 0, i64 16, i1 false)
  store i32 2, ptr %16, align 8
  %17 = getelementptr inbounds i8, ptr %4, i64 24
  store ptr null, ptr %17, align 8
  %18 = getelementptr inbounds i8, ptr %4, i64 36
  store i8 0, ptr %18, align 4
  store ptr null, ptr %5, align 8
  %19 = call noundef zeroext i1 @_ZN15JfrGetCallTrace14find_top_frameER5framePP6MethodS1_(ptr noundef nonnull align 8 dereferenceable(9) %0, ptr noundef nonnull align 8 dereferenceable(56) %2, ptr noundef nonnull %5, ptr noundef nonnull align 8 dereferenceable(56) %4)
  %20 = load ptr, ptr %5, align 8
  %21 = icmp ne ptr %20, null
  %or.cond.not = select i1 %19, i1 %21, i1 false
  br i1 %or.cond.not, label %22, label %23

22:                                               ; preds = %14
  call void @llvm.memcpy.p0.p0.i64(ptr noundef nonnull align 8 dereferenceable(56) %2, ptr noundef nonnull align 8 dereferenceable(56) %4, i64 56, i1 false)
  br label %23

23:                                               ; preds = %14, %3, %22
  %.0 = phi i1 [ true, %22 ], [ false, %3 ], [ false, %14 ]
  ret i1 %.0
}